target datalayout = "e-m:e-p270:32:32-p271:32:32-p272:64:64-i64:64-i128:128-f80:128-n8:16:32:64-S128"
target triple = "x86_64-unknown-linux-gnu"

%"class.rocksdb::Slice" = type { ptr, i64 }
%"class.rocksdb::(anonymous namespace)::LegacyBloomBitsReader" = type <{ %"class.rocksdb::BuiltinFilterBitsReader", ptr, i32, i32, i32, [4 x i8] }>
%"class.rocksdb::BuiltinFilterBitsReader" = type { %"class.rocksdb::FilterBitsReader" }
%"class.rocksdb::FilterBitsReader" = type { ptr }

; Function Attrs: mustprogress nounwind uwtable
define linkonce_odr void @_ZN7rocksdb16FilterBitsReaderC2Ev(ptr noundef nonnull align 8 dereferenceable(8) %this) unnamed_addr #1 comdat align 2 {
entry:
  %this.addr = alloca ptr, align 8
  store ptr %this, ptr %this.addr, align 8
  %this1 = load ptr, ptr %this.addr, align 8
  store ptr getelementptr inbounds ({ [6 x ptr] }, ptr @_ZTVN7rocksdb16FilterBitsReaderE, i32 0, i32 0, i32 2), ptr %this1, align 8
  ret void
}

; Function Attrs: mustprogress nounwind uwtable
define linkonce_odr void @_ZN7rocksdb23BuiltinFilterBitsReaderC2Ev(ptr noundef nonnull align 8 dereferenceable(8) %this) unnamed_addr #1 comdat align 2 {
entry:
  %this.addr = alloca ptr, align 8
  store ptr %this, ptr %this.addr, align 8
  %this1 = load ptr, ptr %this.addr, align 8
  call void @_ZN7rocksdb16FilterBitsReaderC2Ev(ptr noundef nonnull align 8 dereferenceable(8) %this1) #3
  store ptr getelementptr inbounds ({ [7 x ptr] }, ptr @_ZTVN7rocksdb23BuiltinFilterBitsReaderE, i32 0, i32 0, i32 2), ptr %this1, align 8
  ret void
}

; Function Attrs: mustprogress nounwind uwtable
define internal void @_ZN7rocksdb12_GLOBAL__N_121LegacyBloomBitsReaderC2EPKcijj(ptr noundef nonnull align 8 dereferenceable(28) %this, ptr noundef %data, i32 noundef %num_probes, i32 noundef %num_lines, i32 noundef %log2_cache_line_size) unnamed_addr #1 align 2 {
entry:
  %this.addr = alloca ptr, align 8
  %data.addr = alloca ptr, align 8
  %num_probes.addr = alloca i32, align 4
  %num_lines.addr = alloca i32, align 4
  %log2_cache_line_size.addr = alloca i32, align 4
  store ptr %this, ptr %this.addr, align 8
  store ptr %data, ptr %data.addr, align 8
  store i32 %num_probes, ptr %num_probes.addr, align 4
  store i32 %num_lines, ptr %num_lines.addr, align 4
  store i32 %log2_cache_line_size, ptr %log2_cache_line_size.addr, align 4
  %this1 = load ptr, ptr %this.addr, align 8
  call void @_ZN7rocksdb23BuiltinFilterBitsReaderC2Ev(ptr noundef nonnull align 8 dereferenceable(8) %this1) #3
  store ptr getelementptr inbounds ({ [7 x ptr] }, ptr @_ZTVN7rocksdb12_GLOBAL__N_121LegacyBloomBitsReaderE, i32 0, i32 0, i32 2), ptr %this1, align 8
  %data_ = getelementptr inbounds %"class.rocksdb::(anonymous namespace)::LegacyBloomBitsReader", ptr %this1, i32 0, i32 1
  %0 = load ptr, ptr %data.addr, align 8
  store ptr %0, ptr %data_, align 8
  %num_probes_ = getelementptr inbounds %"class.rocksdb::(anonymous namespace)::LegacyBloomBitsReader", ptr %this1, i32 0, i32 2
  %1 = load i32, ptr %num_probes.addr, align 4
  store i32 %1, ptr %num_probes_, align 8
  %num_lines_ = getelementptr inbounds %"class.rocksdb::(anonymous namespace)::LegacyBloomBitsReader", ptr %this1, i32 0, i32 3
  %2 = load i32, ptr %num_lines.addr, align 4
  store i32 %2, ptr %num_lines_, align 4
  %log2_cache_line_size_ = getelementptr inbounds %"class.rocksdb::(anonymous namespace)::LegacyBloomBitsReader", ptr %this1, i32 0, i32 4
  %3 = load i32, ptr %log2_cache_line_size.addr, align 4
  store i32 %3, ptr %log2_cache_line_size_, align 8
  ret void
}

; Function Attrs: mustprogress nounwind uwtable
define linkonce_odr noundef i32 @_ZN7rocksdb18ConstexprFloorLog2IjEEiT_(i32 noundef %v) #1 comdat {
entry:
  %v.addr = alloca i32, align 4
  %rv = alloca i32, align 4
  store i32 %v, ptr %v.addr, align 4
  store i32 0, ptr %rv, align 4
  br label %while.cond

while.cond:                                       ; preds = %while.body, %entry
  %0 = load i32, ptr %v.addr, align 4
  %cmp = icmp ugt i32 %0, 1
  br i1 %cmp, label %while.body, label %while.end

while.body:                                       ; preds = %while.cond
  %1 = load i32, ptr %rv, align 4
  %inc = add nsw i32 %1, 1
  store i32 %inc, ptr %rv, align 4
  %2 = load i32, ptr %v.addr, align 4
  %shr = lshr i32 %2, 1
  store i32 %shr, ptr %v.addr, align 4
  br label %while.cond, !llvm.loop !6

while.end:                                        ; preds = %while.cond
  %3 = load i32, ptr %rv, align 4
  ret i32 %3
}

; Function Attrs: mustprogress nounwind uwtable
define linkonce_odr noundef i32 @_ZN7rocksdb13DecodeFixed32EPKc(ptr noundef %ptr) #1 comdat {
entry:
  %ptr.addr = alloca ptr, align 8
  %result = alloca i32, align 4
  store ptr %ptr, ptr %ptr.addr, align 8
  %0 = load ptr, ptr %ptr.addr, align 8
  call void @llvm.memcpy.p0.p0.i64(ptr align 4 %result, ptr align 1 %0, i64 4, i1 false)
  %1 = load i32, ptr %result, align 4
  ret i32 %1
}

; Function Attrs: mustprogress nounwind uwtable
define internal void @_ZN7rocksdb12_GLOBAL__N_116AlwaysTrueFilterC2Ev(ptr noundef nonnull align 8 dereferenceable(8) %this) unnamed_addr #1 align 2 {
entry:
  %this.addr = alloca ptr, align 8
  store ptr %this, ptr %this.addr, align 8
  %this1 = load ptr, ptr %this.addr, align 8
  call void @_ZN7rocksdb23BuiltinFilterBitsReaderC2Ev(ptr noundef nonnull align 8 dereferenceable(8) %this1) #3
  store ptr getelementptr inbounds ({ [7 x ptr] }, ptr @_ZTVN7rocksdb12_GLOBAL__N_116AlwaysTrueFilterE, i32 0, i32 0, i32 2), ptr %this1, align 8
  ret void
}

; Function Attrs: mustprogress nounwind uwtable
define linkonce_odr noundef ptr @_ZNK7rocksdb5Slice4dataEv(ptr noundef nonnull align 8 dereferenceable(16) %this) #1 comdat align 2 {
entry:
  %this.addr = alloca ptr, align 8
  store ptr %this, ptr %this.addr, align 8
  %this1 = load ptr, ptr %this.addr, align 8
  %data_ = getelementptr inbounds %"class.rocksdb::Slice", ptr %this1, i32 0, i32 0
  %0 = load ptr, ptr %data_, align 8
  ret ptr %0
}

; Function Attrs: mustprogress nounwind uwtable
define internal void @_ZN7rocksdb12_GLOBAL__N_117AlwaysFalseFilterC2Ev(ptr noundef nonnull align 8 dereferenceable(8) %this) unnamed_addr #1 align 2 {
entry:
  %this.addr = alloca ptr, align 8
  store ptr %this, ptr %this.addr, align 8
  %this1 = load ptr, ptr %this.addr, align 8
  call void @_ZN7rocksdb23BuiltinFilterBitsReaderC2Ev(ptr noundef nonnull align 8 dereferenceable(8) %this1) #3
  store ptr getelementptr inbounds ({ [7 x ptr] }, ptr @_ZTVN7rocksdb12_GLOBAL__N_117AlwaysFalseFilterE, i32 0, i32 0, i32 2), ptr %this1, align 8
  ret void
}

; Function Attrs: mustprogress nounwind uwtable
define linkonce_odr noundef i64 @_ZNK7rocksdb5Slice4sizeEv(ptr noundef nonnull align 8 dereferenceable(16) %this) #1 comdat align 2 {
entry:
  %this.addr = alloca ptr, align 8
  store ptr %this, ptr %this.addr, align 8
  %this1 = load ptr, ptr %this.addr, align 8
  %size_ = getelementptr inbounds %"class.rocksdb::Slice", ptr %this1, i32 0, i32 1
  %0 = load i64, ptr %size_, align 8
  ret i64 %0
}

; Function Attrs: mustprogress uwtable
define noundef ptr @_ZN7rocksdb19BuiltinFilterPolicy26GetBuiltinFilterBitsReaderERKNS_5SliceE(ptr noundef nonnull align 8 dereferenceable(16) %contents) #0 align 2 personality ptr @__gxx_personality_v0 {
entry:
  %retval = alloca ptr, align 8
  %contents.addr = alloca ptr, align 8
  %len_with_meta = alloca i32, align 4
  %raw_num_probes = alloca i8, align 1
  %num_probes = alloca i32, align 4
  %len = alloca i32, align 4
  %num_lines = alloca i32, align 4
  %log2_cache_line_size = alloca i32, align 4
  %exn.slot = alloca ptr, align 8
  %ehselector.slot = alloca i32, align 4
  store ptr %contents, ptr %contents.addr, align 8
  %0 = load ptr, ptr %contents.addr, align 8
  %call = call noundef i64 @_ZNK7rocksdb5Slice4sizeEv(ptr noundef nonnull align 8 dereferenceable(16) %0)
  %conv = trunc i64 %call to i32
  store i32 %conv, ptr %len_with_meta, align 4
  %1 = load i32, ptr %len_with_meta, align 4
  %cmp = icmp ule i32 %1, 5
  br i1 %cmp, label %if.then, label %if.end

if.then:                                          ; preds = %entry
  %call1 = call noalias noundef nonnull ptr @_Znwm(i64 noundef 8) #20
  call void @llvm.memset.p0.i64(ptr align 8 %call1, i8 0, i64 8, i1 false)
  call void @_ZN7rocksdb12_GLOBAL__N_117AlwaysFalseFilterC2Ev(ptr noundef nonnull align 8 dereferenceable(8) %call1) #3
  store ptr %call1, ptr %retval, align 8
  br label %return

if.end:                                           ; preds = %entry
  %2 = load ptr, ptr %contents.addr, align 8
  %call2 = call noundef ptr @_ZNK7rocksdb5Slice4dataEv(ptr noundef nonnull align 8 dereferenceable(16) %2)
  %3 = load i32, ptr %len_with_meta, align 4
  %sub = sub i32 %3, 5
  %idxprom = zext i32 %sub to i64
  %arrayidx = getelementptr inbounds i8, ptr %call2, i64 %idxprom
  %4 = load i8, ptr %arrayidx, align 1
  store i8 %4, ptr %raw_num_probes, align 1
  %5 = load i8, ptr %raw_num_probes, align 1
  %conv3 = sext i8 %5 to i32
  %cmp4 = icmp slt i32 %conv3, 1
  br i1 %cmp4, label %if.then5, label %if.end13

if.then5:                                         ; preds = %if.end
  %6 = load i8, ptr %raw_num_probes, align 1
  %conv6 = sext i8 %6 to i32
  switch i32 %conv6, label %sw.default [
    i32 0, label %sw.bb
    i32 -1, label %sw.bb8
    i32 -2, label %sw.bb10
  ]

sw.bb:                                            ; preds = %if.then5
  %call7 = call noalias noundef nonnull ptr @_Znwm(i64 noundef 8) #20
  call void @llvm.memset.p0.i64(ptr align 8 %call7, i8 0, i64 8, i1 false)
  call void @_ZN7rocksdb12_GLOBAL__N_116AlwaysTrueFilterC2Ev(ptr noundef nonnull align 8 dereferenceable(8) %call7) #3
  store ptr %call7, ptr %retval, align 8
  br label %return

sw.bb8:                                           ; preds = %if.then5
  %7 = load ptr, ptr %contents.addr, align 8
  %call9 = call noundef ptr @_ZN7rocksdb19BuiltinFilterPolicy18GetBloomBitsReaderERKNS_5SliceE(ptr noundef nonnull align 8 dereferenceable(16) %7)
  store ptr %call9, ptr %retval, align 8
  br label %return

sw.bb10:                                          ; preds = %if.then5
  %8 = load ptr, ptr %contents.addr, align 8
  %call11 = call noundef ptr @_ZN7rocksdb19BuiltinFilterPolicy19GetRibbonBitsReaderERKNS_5SliceE(ptr noundef nonnull align 8 dereferenceable(16) %8)
  store ptr %call11, ptr %retval, align 8
  br label %return

sw.default:                                       ; preds = %if.then5
  %call12 = call noalias noundef nonnull ptr @_Znwm(i64 noundef 8) #20
  call void @llvm.memset.p0.i64(ptr align 8 %call12, i8 0, i64 8, i1 false)
  call void @_ZN7rocksdb12_GLOBAL__N_116AlwaysTrueFilterC2Ev(ptr noundef nonnull align 8 dereferenceable(8) %call12) #3
  store ptr %call12, ptr %retval, align 8
  br label %return

if.end13:                                         ; preds = %if.end
  %9 = load i8, ptr %raw_num_probes, align 1
  %conv14 = sext i8 %9 to i32
  store i32 %conv14, ptr %num_probes, align 4
  %10 = load i32, ptr %len_with_meta, align 4
  %sub15 = sub i32 %10, 5
  store i32 %sub15, ptr %len, align 4
  %11 = load ptr, ptr %contents.addr, align 8
  %call16 = call noundef ptr @_ZNK7rocksdb5Slice4dataEv(ptr noundef nonnull align 8 dereferenceable(16) %11)
  %12 = load i32, ptr %len_with_meta, align 4
  %idx.ext = zext i32 %12 to i64
  %add.ptr = getelementptr inbounds i8, ptr %call16, i64 %idx.ext
  %add.ptr17 = getelementptr inbounds i8, ptr %add.ptr, i64 -4
  %call18 = call noundef i32 @_ZN7rocksdb13DecodeFixed32EPKc(ptr noundef %add.ptr17)
  store i32 %call18, ptr %num_lines, align 4
  %13 = load i32, ptr %num_lines, align 4
  %mul = mul i32 %13, 64
  %14 = load i32, ptr %len, align 4
  %cmp19 = icmp eq i32 %mul, %14
  br i1 %cmp19, label %if.then20, label %if.else

if.then20:                                        ; preds = %if.end13
  %call21 = call noundef i32 @_ZN7rocksdb18ConstexprFloorLog2IjEEiT_(i32 noundef 64)
  store i32 %call21, ptr %log2_cache_line_size, align 4
  br label %if.end34

if.else:                                          ; preds = %if.end13
  %15 = load i32, ptr %num_lines, align 4
  %cmp22 = icmp eq i32 %15, 0
  br i1 %cmp22, label %if.then24, label %lor.lhs.false

lor.lhs.false:                                    ; preds = %if.else
  %16 = load i32, ptr %len, align 4
  %17 = load i32, ptr %num_lines, align 4
  %rem = urem i32 %16, %17
  %cmp23 = icmp ne i32 %rem, 0
  br i1 %cmp23, label %if.then24, label %if.else26

if.then24:                                        ; preds = %lor.lhs.false, %if.else
  %call25 = call noalias noundef nonnull ptr @_Znwm(i64 noundef 8) #20
  call void @llvm.memset.p0.i64(ptr align 8 %call25, i8 0, i64 8, i1 false)
  call void @_ZN7rocksdb12_GLOBAL__N_116AlwaysTrueFilterC2Ev(ptr noundef nonnull align 8 dereferenceable(8) %call25) #3
  store ptr %call25, ptr %retval, align 8
  br label %return

if.else26:                                        ; preds = %lor.lhs.false
  store i32 0, ptr %log2_cache_line_size, align 4
  br label %while.cond

while.cond:                                       ; preds = %while.body, %if.else26
  %18 = load i32, ptr %num_lines, align 4
  %19 = load i32, ptr %log2_cache_line_size, align 4
  %shl = shl i32 %18, %19
  %20 = load i32, ptr %len, align 4
  %cmp27 = icmp ult i32 %shl, %20
  br i1 %cmp27, label %while.body, label %while.end

while.body:                                       ; preds = %while.cond
  %21 = load i32, ptr %log2_cache_line_size, align 4
  %inc = add i32 %21, 1
  store i32 %inc, ptr %log2_cache_line_size, align 4
  br label %while.cond, !llvm.loop !4

while.end:                                        ; preds = %while.cond
  %22 = load i32, ptr %num_lines, align 4
  %23 = load i32, ptr %log2_cache_line_size, align 4
  %shl28 = shl i32 %22, %23
  %24 = load i32, ptr %len, align 4
  %cmp29 = icmp ne i32 %shl28, %24
  br i1 %cmp29, label %if.then30, label %if.end32

if.then30:                                        ; preds = %while.end
  %call31 = call noalias noundef nonnull ptr @_Znwm(i64 noundef 8) #20
  call void @llvm.memset.p0.i64(ptr align 8 %call31, i8 0, i64 8, i1 false)
  call void @_ZN7rocksdb12_GLOBAL__N_116AlwaysTrueFilterC2Ev(ptr noundef nonnull align 8 dereferenceable(8) %call31) #3
  store ptr %call31, ptr %retval, align 8
  br label %return

if.end32:                                         ; preds = %while.end
  br label %if.end33

if.end33:                                         ; preds = %if.end32
  br label %if.end34

if.end34:                                         ; preds = %if.end33, %if.then20
  %call35 = call noalias noundef nonnull ptr @_Znwm(i64 noundef 32) #20
  %25 = load ptr, ptr %contents.addr, align 8
  %call36 = invoke noundef ptr @_ZNK7rocksdb5Slice4dataEv(ptr noundef nonnull align 8 dereferenceable(16) %25)
          to label %invoke.cont unwind label %lpad

invoke.cont:                                      ; preds = %if.end34
  %26 = load i32, ptr %num_probes, align 4
  %27 = load i32, ptr %num_lines, align 4
  %28 = load i32, ptr %log2_cache_line_size, align 4
  invoke void @_ZN7rocksdb12_GLOBAL__N_121LegacyBloomBitsReaderC2EPKcijj(ptr noundef nonnull align 8 dereferenceable(28) %call35, ptr noundef %call36, i32 noundef %26, i32 noundef %27, i32 noundef %28)
          to label %invoke.cont37 unwind label %lpad

invoke.cont37:                                    ; preds = %invoke.cont
  store ptr %call35, ptr %retval, align 8
  br label %return

lpad:                                             ; preds = %invoke.cont, %if.end34
  %29 = landingpad { ptr, i32 }
          cleanup
  %30 = extractvalue { ptr, i32 } %29, 0
  store ptr %30, ptr %exn.slot, align 8
  %31 = extractvalue { ptr, i32 } %29, 1
  store i32 %31, ptr %ehselector.slot, align 4
  call void @_ZdlPv(ptr noundef %call35) #21
  br label %eh.resume

return:                                           ; preds = %invoke.cont37, %if.then30, %if.then24, %sw.default, %sw.bb10, %sw.bb8, %sw.bb, %if.then
  %32 = load ptr, ptr %retval, align 8
  ret ptr %32

eh.resume:                                        ; preds = %lpad
  %exn = load ptr, ptr %exn.slot, align 8
  %sel = load i32, ptr %ehselector.slot, align 4
  %lpad.val = insertvalue { ptr, i32 } poison, ptr %exn, 0
  %lpad.val38 = insertvalue { ptr, i32 } %lpad.val, i32 %sel, 1
  resume { ptr, i32 } %lpad.val38
}