; Function Attrs: mustprogress uwtable
define noalias noundef nonnull ptr @_ZN7rocksdb19BuiltinFilterPolicy26GetBuiltinFilterBitsReaderERKNS_5SliceE(ptr nocapture noundef nonnull readonly align 8 dereferenceable(16) %contents) local_unnamed_addr #3 align 2 personality ptr @__gxx_personality_v0 {
entry:
  %size_.i = getelementptr inbounds i8, ptr %contents, i64 8
  %0 = load i64, ptr %size_.i, align 8
  %conv = trunc i64 %0 to i32
  %cmp = icmp ult i32 %conv, 6
  br i1 %cmp, label %if.then, label %if.end

if.then:                                          ; preds = %entry
  %call1 = tail call noalias noundef nonnull dereferenceable(8) ptr @_Znwm(i64 noundef 8) #34
  store ptr getelementptr inbounds ({ [7 x ptr] }, ptr @_ZTVN7rocksdb12_GLOBAL__N_117AlwaysFalseFilterE, i64 0, i32 0, i64 2), ptr %call1, align 8
  br label %return

if.end:                                           ; preds = %entry
  %1 = load ptr, ptr %contents, align 8
  %sub = add i32 %conv, -5
  %idxprom = zext i32 %sub to i64
  %arrayidx = getelementptr inbounds i8, ptr %1, i64 %idxprom
  %2 = load i8, ptr %arrayidx, align 1
  %conv3 = sext i8 %2 to i32
  %cmp4 = icmp slt i8 %2, 1
  br i1 %cmp4, label %if.then5, label %if.end13

if.then5:                                         ; preds = %if.end
  switch i8 %2, label %sw.default [
    i8 0, label %sw.bb
    i8 -1, label %sw.bb8
    i8 -2, label %sw.bb10
  ]

sw.bb:                                            ; preds = %if.then5
  %call7 = tail call noalias noundef nonnull dereferenceable(8) ptr @_Znwm(i64 noundef 8) #34
  store ptr getelementptr inbounds ({ [7 x ptr] }, ptr @_ZTVN7rocksdb12_GLOBAL__N_116AlwaysTrueFilterE, i64 0, i32 0, i64 2), ptr %call7, align 8
  br label %return

sw.bb8:                                           ; preds = %if.then5
  %call9 = tail call noundef ptr @_ZN7rocksdb19BuiltinFilterPolicy18GetBloomBitsReaderERKNS_5SliceE(ptr noundef nonnull align 8 dereferenceable(16) %contents)
  br label %return

sw.bb10:                                          ; preds = %if.then5
  %call11 = tail call noundef ptr @_ZN7rocksdb19BuiltinFilterPolicy19GetRibbonBitsReaderERKNS_5SliceE(ptr noundef nonnull align 8 dereferenceable(16) %contents)
  br label %return

sw.default:                                       ; preds = %if.then5
  %call12 = tail call noalias noundef nonnull dereferenceable(8) ptr @_Znwm(i64 noundef 8) #34
  store ptr getelementptr inbounds ({ [7 x ptr] }, ptr @_ZTVN7rocksdb12_GLOBAL__N_116AlwaysTrueFilterE, i64 0, i32 0, i64 2), ptr %call12, align 8
  br label %return

if.end13:                                         ; preds = %if.end
  %idx.ext = and i64 %0, 4294967295
  %add.ptr = getelementptr inbounds i8, ptr %1, i64 %idx.ext
  %add.ptr17 = getelementptr inbounds i8, ptr %add.ptr, i64 -4
  %result.0.copyload.i = load i32, ptr %add.ptr17, align 1
  %mul = shl i32 %result.0.copyload.i, 6
  %cmp19 = icmp eq i32 %mul, %sub
  br i1 %cmp19, label %if.end34, label %if.else

if.else:                                          ; preds = %if.end13
  %cmp22 = icmp eq i32 %result.0.copyload.i, 0
  br i1 %cmp22, label %if.then24, label %lor.lhs.false

lor.lhs.false:                                    ; preds = %if.else
  %rem = urem i32 %sub, %result.0.copyload.i
  %cmp23.not = icmp eq i32 %rem, 0
  br i1 %cmp23.not, label %while.cond, label %if.then24

if.then24:                                        ; preds = %lor.lhs.false, %if.else
  %call25 = tail call noalias noundef nonnull dereferenceable(8) ptr @_Znwm(i64 noundef 8) #34
  store ptr getelementptr inbounds ({ [7 x ptr] }, ptr @_ZTVN7rocksdb12_GLOBAL__N_116AlwaysTrueFilterE, i64 0, i32 0, i64 2), ptr %call25, align 8
  br label %return

while.cond:                                       ; preds = %lor.lhs.false, %while.cond
  %log2_cache_line_size.0 = phi i32 [ %inc, %while.cond ], [ 0, %lor.lhs.false ]
  %shl = shl i32 %result.0.copyload.i, %log2_cache_line_size.0
  %cmp27 = icmp ult i32 %shl, %sub
  %inc = add i32 %log2_cache_line_size.0, 1
  br i1 %cmp27, label %while.cond, label %while.end, !llvm.loop !12

while.end:                                        ; preds = %while.cond
  %cmp29.not = icmp eq i32 %shl, %sub
  br i1 %cmp29.not, label %if.end34, label %if.then30

if.then30:                                        ; preds = %while.end
  %call31 = tail call noalias noundef nonnull dereferenceable(8) ptr @_Znwm(i64 noundef 8) #34
  store ptr getelementptr inbounds ({ [7 x ptr] }, ptr @_ZTVN7rocksdb12_GLOBAL__N_116AlwaysTrueFilterE, i64 0, i32 0, i64 2), ptr %call31, align 8
  br label %return

if.end34:                                         ; preds = %if.end13, %while.end
  %log2_cache_line_size.1 = phi i32 [ %log2_cache_line_size.0, %while.end ], [ 6, %if.end13 ]
  %call35 = tail call noalias noundef nonnull dereferenceable(32) ptr @_Znwm(i64 noundef 32) #34
  store ptr getelementptr inbounds ({ [7 x ptr] }, ptr @_ZTVN7rocksdb12_GLOBAL__N_121LegacyBloomBitsReaderE, i64 0, i32 0, i64 2), ptr %call35, align 8
  %data_.i = getelementptr inbounds i8, ptr %call35, i64 8
  store ptr %1, ptr %data_.i, align 8
  %num_probes_.i = getelementptr inbounds i8, ptr %call35, i64 16
  store i32 %conv3, ptr %num_probes_.i, align 8
  %num_lines_.i = getelementptr inbounds i8, ptr %call35, i64 20
  store i32 %result.0.copyload.i, ptr %num_lines_.i, align 4
  %log2_cache_line_size_.i = getelementptr inbounds i8, ptr %call35, i64 24
  store i32 %log2_cache_line_size.1, ptr %log2_cache_line_size_.i, align 8
  br label %return

return:                                           ; preds = %if.end34, %if.then30, %if.then24, %sw.default, %sw.bb10, %sw.bb8, %sw.bb, %if.then
  %retval.0 = phi ptr [ %call1, %if.then ], [ %call12, %sw.default ], [ %call11, %sw.bb10 ], [ %call9, %sw.bb8 ], [ %call7, %sw.bb ], [ %call35, %if.end34 ], [ %call25, %if.then24 ], [ %call31, %if.then30 ]
  ret ptr %retval.0
}